; Function Attrs: nounwind uwtable
define hidden i32 @lj_ir_tonumber(ptr noundef %0, i32 noundef %1) local_unnamed_addr #6 {
  %3 = lshr i32 %1, 24
  %4 = and i32 %3, 30
  %5 = add nsw i32 %4, -14
  %6 = icmp ult i32 %5, 6
  br i1 %6, label %17, label %7

7:                                                ; preds = %2
  %8 = and i32 %1, 520093696
  %9 = icmp eq i32 %8, 67108864
  br i1 %9, label %10, label %16

10:                                               ; preds = %7
  %11 = trunc i32 %1 to i16
  %12 = getelementptr inbounds nuw i8, ptr %0, i64 184
  %13 = getelementptr inbounds nuw i8, ptr %0, i64 188
  store i16 24206, ptr %13, align 4, !tbaa !33
  store i16 %11, ptr %12, align 8, !tbaa !33
  %14 = getelementptr inbounds nuw i8, ptr %0, i64 186
  store i16 0, ptr %14, align 2, !tbaa !33
  %15 = tail call i32 @lj_opt_fold(ptr noundef %0) #13
  br label %17

16:                                               ; preds = %7
  tail call void @lj_trace_err(ptr noundef %0, i32 noundef 11) #14
  unreachable

17:                                               ; preds = %10, %2
  %.0 = phi i32 [ %1, %2 ], [ %15, %10 ]
  ret i32 %.0
}